target datalayout = "e-m:e-p270:32:32-p271:32:32-p272:64:64-i64:64-i128:128-f80:128-n8:16:32:64-S128"
target triple = "x86_64-pc-linux-gnu"

%struct.AVFilterContext = type { ptr, ptr, ptr, ptr, ptr, i32, ptr, ptr, i32, ptr, ptr, i32, i32, ptr, ptr, ptr, ptr, i32, ptr, i32, i32 }
%struct.XPSNRContext = type { ptr, i32, i32, [4 x i8], i32, i64, i32, %struct.FFFrameSync, [4 x i32], [4 x i32], [4 x i32], [4 x i8], ptr, ptr, ptr, ptr, ptr, ptr, [3 x ptr], [3 x ptr], i64, [3 x double], [3 x double], [3 x i32], i32, %struct.XPSNRDSPContext, %struct.PSNRDSPContext }
%struct.FFFrameSync = type { ptr, ptr, i32, %struct.AVRational, i64, ptr, ptr, i32, i32, i8, i8, ptr, i32, i32, i32, i32 }
%struct.AVRational = type { i32, i32 }
%struct.XPSNRDSPContext = type { ptr, ptr, ptr }
%struct.PSNRDSPContext = type { ptr }
%struct.AVFilterLink = type { ptr, ptr, ptr, ptr, i32, i32, i32, i32, %struct.AVRational, i32, i32, i32, %struct.AVChannelLayout, %struct.AVRational, ptr, i32, %struct.AVFilterFormatsConfig, %struct.AVFilterFormatsConfig }
%struct.AVChannelLayout = type { i32, i32, %union.anon.1, ptr }
%union.anon.1 = type { i64 }
%struct.AVFilterFormatsConfig = type { ptr, ptr, ptr, ptr, ptr }
%struct.FilterLink = type { %struct.AVFilterLink, ptr, i64, i64, i32, i32, i64, i64, i64, i64, %struct.AVRational, ptr }

@.str.7 = private unnamed_addr constant [107 x i8] c"not matching timebases found between first input: %d/%d and second input %d/%d, results may be incorrect!\0A\00", align 1

; Function Attrs: inlinehint nounwind uwtable
define internal i32 @av_cmp_q(i64 %0, i64 %1) #4 {
  %3 = alloca i32, align 4
  %4 = alloca %struct.AVRational, align 4
  %5 = alloca %struct.AVRational, align 4
  %6 = alloca i64, align 8
  %7 = alloca i32, align 4
  store i64 %0, ptr %4, align 4
  store i64 %1, ptr %5, align 4
  call void @llvm.lifetime.start.p0(i64 8, ptr %6) #12
  %8 = getelementptr inbounds nuw %struct.AVRational, ptr %4, i32 0, i32 0
  %9 = load i32, ptr %8, align 4, !tbaa !97
  %10 = sext i32 %9 to i64
  %11 = getelementptr inbounds nuw %struct.AVRational, ptr %5, i32 0, i32 1
  %12 = load i32, ptr %11, align 4, !tbaa !98
  %13 = sext i32 %12 to i64
  %14 = mul nsw i64 %10, %13
  %15 = getelementptr inbounds nuw %struct.AVRational, ptr %5, i32 0, i32 0
  %16 = load i32, ptr %15, align 4, !tbaa !97
  %17 = sext i32 %16 to i64
  %18 = getelementptr inbounds nuw %struct.AVRational, ptr %4, i32 0, i32 1
  %19 = load i32, ptr %18, align 4, !tbaa !98
  %20 = sext i32 %19 to i64
  %21 = mul nsw i64 %17, %20
  %22 = sub nsw i64 %14, %21
  store i64 %22, ptr %6, align 8, !tbaa !84
  %23 = load i64, ptr %6, align 8, !tbaa !84
  %24 = icmp ne i64 %23, 0
  br i1 %24, label %25, label %38

25:                                               ; preds = %2
  %26 = load i64, ptr %6, align 8, !tbaa !84
  %27 = getelementptr inbounds nuw %struct.AVRational, ptr %4, i32 0, i32 1
  %28 = load i32, ptr %27, align 4, !tbaa !98
  %29 = sext i32 %28 to i64
  %30 = xor i64 %26, %29
  %31 = getelementptr inbounds nuw %struct.AVRational, ptr %5, i32 0, i32 1
  %32 = load i32, ptr %31, align 4, !tbaa !98
  %33 = sext i32 %32 to i64
  %34 = xor i64 %30, %33
  %35 = ashr i64 %34, 63
  %36 = trunc i64 %35 to i32
  %37 = or i32 %36, 1
  store i32 %37, ptr %3, align 4
  store i32 1, ptr %7, align 4
  br label %64

38:                                               ; preds = %2
  %39 = getelementptr inbounds nuw %struct.AVRational, ptr %5, i32 0, i32 1
  %40 = load i32, ptr %39, align 4, !tbaa !98
  %41 = icmp ne i32 %40, 0
  br i1 %41, label %42, label %47

42:                                               ; preds = %38
  %43 = getelementptr inbounds nuw %struct.AVRational, ptr %4, i32 0, i32 1
  %44 = load i32, ptr %43, align 4, !tbaa !98
  %45 = icmp ne i32 %44, 0
  br i1 %45, label %46, label %47

46:                                               ; preds = %42
  store i32 0, ptr %3, align 4
  store i32 1, ptr %7, align 4
  br label %64

47:                                               ; preds = %42, %38
  %48 = getelementptr inbounds nuw %struct.AVRational, ptr %4, i32 0, i32 0
  %49 = load i32, ptr %48, align 4, !tbaa !97
  %50 = icmp ne i32 %49, 0
  br i1 %50, label %51, label %63

51:                                               ; preds = %47
  %52 = getelementptr inbounds nuw %struct.AVRational, ptr %5, i32 0, i32 0
  %53 = load i32, ptr %52, align 4, !tbaa !97
  %54 = icmp ne i32 %53, 0
  br i1 %54, label %55, label %63

55:                                               ; preds = %51
  %56 = getelementptr inbounds nuw %struct.AVRational, ptr %4, i32 0, i32 0
  %57 = load i32, ptr %56, align 4, !tbaa !97
  %58 = ashr i32 %57, 31
  %59 = getelementptr inbounds nuw %struct.AVRational, ptr %5, i32 0, i32 0
  %60 = load i32, ptr %59, align 4, !tbaa !97
  %61 = ashr i32 %60, 31
  %62 = sub nsw i32 %58, %61
  store i32 %62, ptr %3, align 4
  store i32 1, ptr %7, align 4
  br label %64

63:                                               ; preds = %51, %47
  store i32 -2147483648, ptr %3, align 4
  store i32 1, ptr %7, align 4
  br label %64

64:                                               ; preds = %63, %55, %46, %25
  call void @llvm.lifetime.end.p0(i64 8, ptr %6) #12
  %65 = load i32, ptr %3, align 4
  ret i32 %65
}

; Function Attrs: inlinehint nounwind uwtable
define internal ptr @ff_filter_link(ptr noundef %0) #4 {
  %2 = alloca ptr, align 8
  store ptr %0, ptr %2, align 8, !tbaa !51
  %3 = load ptr, ptr %2, align 8, !tbaa !51
  ret ptr %3
}

; Function Attrs: nounwind uwtable
define internal i32 @config_output(ptr noundef %0) #0 {
  %2 = alloca i32, align 4
  %3 = alloca ptr, align 8
  %4 = alloca ptr, align 8
  %5 = alloca ptr, align 8
  %6 = alloca ptr, align 8
  %7 = alloca ptr, align 8
  %8 = alloca ptr, align 8
  %9 = alloca i32, align 4
  %10 = alloca i32, align 4
  store ptr %0, ptr %3, align 8, !tbaa !51
  call void @llvm.lifetime.start.p0(i64 8, ptr %4) #12
  %11 = load ptr, ptr %3, align 8, !tbaa !51
  %12 = getelementptr inbounds nuw %struct.AVFilterLink, ptr %11, i32 0, i32 0
  %13 = load ptr, ptr %12, align 8, !tbaa !93
  store ptr %13, ptr %4, align 8, !tbaa !4
  call void @llvm.lifetime.start.p0(i64 8, ptr %5) #12
  %14 = load ptr, ptr %4, align 8, !tbaa !4
  %15 = getelementptr inbounds nuw %struct.AVFilterContext, ptr %14, i32 0, i32 9
  %16 = load ptr, ptr %15, align 8, !tbaa !9
  store ptr %16, ptr %5, align 8, !tbaa !22
  call void @llvm.lifetime.start.p0(i64 8, ptr %6) #12
  %17 = load ptr, ptr %4, align 8, !tbaa !4
  %18 = getelementptr inbounds nuw %struct.AVFilterContext, ptr %17, i32 0, i32 4
  %19 = load ptr, ptr %18, align 8, !tbaa !65
  %20 = getelementptr inbounds ptr, ptr %19, i64 0
  %21 = load ptr, ptr %20, align 8, !tbaa !51
  store ptr %21, ptr %6, align 8, !tbaa !51
  call void @llvm.lifetime.start.p0(i64 8, ptr %7) #12
  %22 = load ptr, ptr %6, align 8, !tbaa !51
  %23 = call ptr @ff_filter_link(ptr noundef %22)
  store ptr %23, ptr %7, align 8, !tbaa !63
  call void @llvm.lifetime.start.p0(i64 8, ptr %8) #12
  %24 = load ptr, ptr %3, align 8, !tbaa !51
  %25 = call ptr @ff_filter_link(ptr noundef %24)
  store ptr %25, ptr %8, align 8, !tbaa !63
  call void @llvm.lifetime.start.p0(i64 4, ptr %9) #12
  %26 = load ptr, ptr %5, align 8, !tbaa !22
  %27 = getelementptr inbounds nuw %struct.XPSNRContext, ptr %26, i32 0, i32 7
  %28 = load ptr, ptr %4, align 8, !tbaa !4
  %29 = call i32 @ff_framesync_init_dualinput(ptr noundef %27, ptr noundef %28)
  store i32 %29, ptr %9, align 4, !tbaa !36
  %30 = icmp slt i32 %29, 0
  br i1 %30, label %31, label %33

31:                                               ; preds = %1
  %32 = load i32, ptr %9, align 4, !tbaa !36
  store i32 %32, ptr %2, align 4
  store i32 1, ptr %10, align 4
  br label %116

33:                                               ; preds = %1
  %34 = load ptr, ptr %6, align 8, !tbaa !51
  %35 = getelementptr inbounds nuw %struct.AVFilterLink, ptr %34, i32 0, i32 6
  %36 = load i32, ptr %35, align 8, !tbaa !66
  %37 = load ptr, ptr %3, align 8, !tbaa !51
  %38 = getelementptr inbounds nuw %struct.AVFilterLink, ptr %37, i32 0, i32 6
  store i32 %36, ptr %38, align 8, !tbaa !66
  %39 = load ptr, ptr %6, align 8, !tbaa !51
  %40 = getelementptr inbounds nuw %struct.AVFilterLink, ptr %39, i32 0, i32 7
  %41 = load i32, ptr %40, align 4, !tbaa !67
  %42 = load ptr, ptr %3, align 8, !tbaa !51
  %43 = getelementptr inbounds nuw %struct.AVFilterLink, ptr %42, i32 0, i32 7
  store i32 %41, ptr %43, align 4, !tbaa !67
  %44 = load ptr, ptr %3, align 8, !tbaa !51
  %45 = getelementptr inbounds nuw %struct.AVFilterLink, ptr %44, i32 0, i32 13
  %46 = load ptr, ptr %6, align 8, !tbaa !51
  %47 = getelementptr inbounds nuw %struct.AVFilterLink, ptr %46, i32 0, i32 13
  call void @llvm.memcpy.p0.p0.i64(ptr align 8 %45, ptr align 8 %47, i64 8, i1 false), !tbaa.struct !94
  %48 = load ptr, ptr %3, align 8, !tbaa !51
  %49 = getelementptr inbounds nuw %struct.AVFilterLink, ptr %48, i32 0, i32 8
  %50 = load ptr, ptr %6, align 8, !tbaa !51
  %51 = getelementptr inbounds nuw %struct.AVFilterLink, ptr %50, i32 0, i32 8
  call void @llvm.memcpy.p0.p0.i64(ptr align 8 %49, ptr align 8 %51, i64 8, i1 false), !tbaa.struct !94
  %52 = load ptr, ptr %8, align 8, !tbaa !63
  %53 = getelementptr inbounds nuw %struct.FilterLink, ptr %52, i32 0, i32 10
  %54 = load ptr, ptr %7, align 8, !tbaa !63
  %55 = getelementptr inbounds nuw %struct.FilterLink, ptr %54, i32 0, i32 10
  call void @llvm.memcpy.p0.p0.i64(ptr align 8 %53, ptr align 8 %55, i64 8, i1 false), !tbaa.struct !94
  %56 = load ptr, ptr %5, align 8, !tbaa !22
  %57 = getelementptr inbounds nuw %struct.XPSNRContext, ptr %56, i32 0, i32 7
  %58 = call i32 @ff_framesync_configure(ptr noundef %57)
  store i32 %58, ptr %9, align 4, !tbaa !36
  %59 = icmp slt i32 %58, 0
  br i1 %59, label %60, label %62

60:                                               ; preds = %33
  %61 = load i32, ptr %9, align 4, !tbaa !36
  store i32 %61, ptr %2, align 4
  store i32 1, ptr %10, align 4
  br label %116

62:                                               ; preds = %33
  %63 = load ptr, ptr %3, align 8, !tbaa !51
  %64 = getelementptr inbounds nuw %struct.AVFilterLink, ptr %63, i32 0, i32 13
  %65 = load ptr, ptr %5, align 8, !tbaa !22
  %66 = getelementptr inbounds nuw %struct.XPSNRContext, ptr %65, i32 0, i32 7
  %67 = getelementptr inbounds nuw %struct.FFFrameSync, ptr %66, i32 0, i32 3
  call void @llvm.memcpy.p0.p0.i64(ptr align 8 %64, ptr align 4 %67, i64 8, i1 false), !tbaa.struct !94
  %68 = load ptr, ptr %6, align 8, !tbaa !51
  %69 = getelementptr inbounds nuw %struct.AVFilterLink, ptr %68, i32 0, i32 13
  %70 = load ptr, ptr %3, align 8, !tbaa !51
  %71 = getelementptr inbounds nuw %struct.AVFilterLink, ptr %70, i32 0, i32 13
  %72 = load i64, ptr %69, align 8
  %73 = load i64, ptr %71, align 8
  %74 = call i32 @av_cmp_q(i64 %72, i64 %73)
  %75 = icmp ne i32 %74, 0
  br i1 %75, label %89, label %76

76:                                               ; preds = %62
  %77 = load ptr, ptr %4, align 8, !tbaa !4
  %78 = getelementptr inbounds nuw %struct.AVFilterContext, ptr %77, i32 0, i32 4
  %79 = load ptr, ptr %78, align 8, !tbaa !65
  %80 = getelementptr inbounds ptr, ptr %79, i64 1
  %81 = load ptr, ptr %80, align 8, !tbaa !51
  %82 = getelementptr inbounds nuw %struct.AVFilterLink, ptr %81, i32 0, i32 13
  %83 = load ptr, ptr %3, align 8, !tbaa !51
  %84 = getelementptr inbounds nuw %struct.AVFilterLink, ptr %83, i32 0, i32 13
  %85 = load i64, ptr %82, align 8
  %86 = load i64, ptr %84, align 8
  %87 = call i32 @av_cmp_q(i64 %85, i64 %86)
  %88 = icmp ne i32 %87, 0
  br i1 %88, label %89, label %115

89:                                               ; preds = %76, %62
  %90 = load ptr, ptr %4, align 8, !tbaa !4
  %91 = load ptr, ptr %6, align 8, !tbaa !51
  %92 = getelementptr inbounds nuw %struct.AVFilterLink, ptr %91, i32 0, i32 13
  %93 = getelementptr inbounds nuw %struct.AVRational, ptr %92, i32 0, i32 0
  %94 = load i32, ptr %93, align 8, !tbaa !95
  %95 = load ptr, ptr %6, align 8, !tbaa !51
  %96 = getelementptr inbounds nuw %struct.AVFilterLink, ptr %95, i32 0, i32 13
  %97 = getelementptr inbounds nuw %struct.AVRational, ptr %96, i32 0, i32 1
  %98 = load i32, ptr %97, align 4, !tbaa !96
  %99 = load ptr, ptr %4, align 8, !tbaa !4
  %100 = getelementptr inbounds nuw %struct.AVFilterContext, ptr %99, i32 0, i32 4
  %101 = load ptr, ptr %100, align 8, !tbaa !65
  %102 = getelementptr inbounds ptr, ptr %101, i64 1
  %103 = load ptr, ptr %102, align 8, !tbaa !51
  %104 = getelementptr inbounds nuw %struct.AVFilterLink, ptr %103, i32 0, i32 13
  %105 = getelementptr inbounds nuw %struct.AVRational, ptr %104, i32 0, i32 0
  %106 = load i32, ptr %105, align 8, !tbaa !95
  %107 = load ptr, ptr %4, align 8, !tbaa !4
  %108 = getelementptr inbounds nuw %struct.AVFilterContext, ptr %107, i32 0, i32 4
  %109 = load ptr, ptr %108, align 8, !tbaa !65
  %110 = getelementptr inbounds ptr, ptr %109, i64 1
  %111 = load ptr, ptr %110, align 8, !tbaa !51
  %112 = getelementptr inbounds nuw %struct.AVFilterLink, ptr %111, i32 0, i32 13
  %113 = getelementptr inbounds nuw %struct.AVRational, ptr %112, i32 0, i32 1
  %114 = load i32, ptr %113, align 4, !tbaa !96
  call void (ptr, i32, ptr, ...) @av_log(ptr noundef %90, i32 noundef 24, ptr noundef @.str.7, i32 noundef %94, i32 noundef %98, i32 noundef %106, i32 noundef %114)
  br label %115

115:                                              ; preds = %89, %76
  store i32 0, ptr %2, align 4
  store i32 1, ptr %10, align 4
  br label %116

116:                                              ; preds = %115, %60, %31
  call void @llvm.lifetime.end.p0(i64 4, ptr %9) #12
  call void @llvm.lifetime.end.p0(i64 8, ptr %8) #12
  call void @llvm.lifetime.end.p0(i64 8, ptr %7) #12
  call void @llvm.lifetime.end.p0(i64 8, ptr %6) #12
  call void @llvm.lifetime.end.p0(i64 8, ptr %5) #12
  call void @llvm.lifetime.end.p0(i64 8, ptr %4) #12
  %117 = load i32, ptr %2, align 4
  ret i32 %117
}